target datalayout = "e-m:e-p270:32:32-p271:32:32-p272:64:64-i64:64-i128:128-f80:128-n8:16:32:64-S128"
target triple = "x86_64-unknown-linux-gnu"

%struct.uv__queue = type { ptr, ptr }
%struct.uv_async_s = type { ptr, ptr, i32, ptr, %struct.uv__queue, %union.anon.0, ptr, i32, ptr, %struct.uv__queue, i32 }
%union.anon.0 = type { [4 x ptr] }
%"class.node::SigintWatchdogBase" = type { ptr }
%"class.v8::IndirectHandleBase" = type { ptr }
%"class.node::MemoryRetainer" = type { ptr }
%"class.node::ListNode" = type { ptr, ptr }
%class.anon.271 = type { i8 }
%"class.node::TraceSigintWatchdog" = type <{ %"class.node::HandleWrap", %"class.node::SigintWatchdogBase", i8, [7 x i8], %struct.uv_async_s, i32, [4 x i8] }>
%"class.node::HandleWrap" = type { %"class.node::AsyncWrap", i32, %"class.node::ListNode", ptr }
%"class.node::AsyncWrap" = type { %"class.node::BaseObject", i32, i8, double, double }
%"class.node::BaseObject" = type { %"class.node::MemoryRetainer", %"class.v8::Global.267", ptr, ptr }
%"class.v8::Global.267" = type { %"class.v8::PersistentBase.268" }
%"class.v8::PersistentBase.268" = type { %"class.v8::IndirectHandleBase" }
%"class.node::ContainerOfHelper.343" = type { ptr }

; Function Attrs: mustprogress nounwind uwtable
define linkonce_odr dso_local noundef i64 @_ZN4node8OffsetOfI10uv_async_sNS_19TraceSigintWatchdogEEEmMT0_T_(i64 %field) #4 comdat {
entry:
  %field.addr = alloca i64, align 8
  store i64 %field, ptr %field.addr, align 8
  %0 = load i64, ptr %field.addr, align 8
  %memptr.offset = getelementptr inbounds i8, ptr null, i64 %0
  %1 = ptrtoint ptr %memptr.offset to i64
  ret i64 %1
}

; Function Attrs: mustprogress nounwind uwtable
define linkonce_odr dso_local void @_ZN4node17ContainerOfHelperI10uv_async_sNS_19TraceSigintWatchdogEEC2EMS2_S1_PS1_(ptr noundef nonnull align 8 dereferenceable(8) %this, i64 %field, ptr noundef %pointer) unnamed_addr #4 comdat align 2 {
entry:
  %this.addr = alloca ptr, align 8
  %field.addr = alloca i64, align 8
  %pointer.addr = alloca ptr, align 8
  store ptr %this, ptr %this.addr, align 8
  store i64 %field, ptr %field.addr, align 8
  store ptr %pointer, ptr %pointer.addr, align 8
  %this1 = load ptr, ptr %this.addr, align 8
  %pointer_ = getelementptr inbounds %"class.node::ContainerOfHelper.343", ptr %this1, i32 0, i32 0
  %0 = load ptr, ptr %pointer.addr, align 8
  %1 = ptrtoint ptr %0 to i64
  %2 = load i64, ptr %field.addr, align 8
  %call = call noundef i64 @_ZN4node8OffsetOfI10uv_async_sNS_19TraceSigintWatchdogEEEmMT0_T_(i64 %2)
  %sub = sub i64 %1, %call
  %3 = inttoptr i64 %sub to ptr
  store ptr %3, ptr %pointer_, align 8
  ret void
}

; Function Attrs: mustprogress nounwind uwtable
define linkonce_odr dso_local noundef ptr @_ZNK4node17ContainerOfHelperI10uv_async_sNS_19TraceSigintWatchdogEEcvPT_IS2_EEv(ptr noundef nonnull align 8 dereferenceable(8) %this) #4 comdat align 2 {
entry:
  %this.addr = alloca ptr, align 8
  store ptr %this, ptr %this.addr, align 8
  %this1 = load ptr, ptr %this.addr, align 8
  %pointer_ = getelementptr inbounds %"class.node::ContainerOfHelper.343", ptr %this1, i32 0, i32 0
  %0 = load ptr, ptr %pointer_, align 8
  ret ptr %0
}

; Function Attrs: mustprogress nounwind uwtable
define linkonce_odr dso_local ptr @_ZN4node11ContainerOfI10uv_async_sNS_19TraceSigintWatchdogEEENS_17ContainerOfHelperIT_T0_EEMS5_S4_PS4_(i64 %field, ptr noundef %pointer) #4 comdat {
entry:
  %retval = alloca %"class.node::ContainerOfHelper.343", align 8
  %field.addr = alloca i64, align 8
  %pointer.addr = alloca ptr, align 8
  store i64 %field, ptr %field.addr, align 8
  store ptr %pointer, ptr %pointer.addr, align 8
  %0 = load i64, ptr %field.addr, align 8
  %1 = load ptr, ptr %pointer.addr, align 8
  call void @_ZN4node17ContainerOfHelperI10uv_async_sNS_19TraceSigintWatchdogEEC2EMS2_S1_PS1_(ptr noundef nonnull align 8 dereferenceable(8) %retval, i64 %0, ptr noundef %1)
  %coerce.dive = getelementptr inbounds %"class.node::ContainerOfHelper.343", ptr %retval, i32 0, i32 0
  %2 = load ptr, ptr %coerce.dive, align 8
  ret ptr %2
}

; Function Attrs: mustprogress nounwind uwtable
define internal void @"_ZZN4node19TraceSigintWatchdogC1EPNS_11EnvironmentEN2v85LocalINS3_6ObjectEEEENK3$_0clEP10uv_async_s"(ptr noundef nonnull align 1 dereferenceable(1) %this, ptr noundef %handle) #4 align 2 {
entry:
  %this.addr = alloca ptr, align 8
  %handle.addr = alloca ptr, align 8
  %watchdog = alloca ptr, align 8
  %ref.tmp = alloca %"class.node::ContainerOfHelper.343", align 8
  store ptr %this, ptr %this.addr, align 8
  store ptr %handle, ptr %handle.addr, align 8
  %0 = load ptr, ptr %handle.addr, align 8
  %call = call ptr @_ZN4node11ContainerOfI10uv_async_sNS_19TraceSigintWatchdogEEENS_17ContainerOfHelperIT_T0_EEMS5_S4_PS4_(i64 104, ptr noundef %0)
  %coerce.dive = getelementptr inbounds %"class.node::ContainerOfHelper.343", ptr %ref.tmp, i32 0, i32 0
  store ptr %call, ptr %coerce.dive, align 8
  %call2 = call noundef ptr @_ZNK4node17ContainerOfHelperI10uv_async_sNS_19TraceSigintWatchdogEEcvPT_IS2_EEv(ptr noundef nonnull align 8 dereferenceable(8) %ref.tmp)
  store ptr %call2, ptr %watchdog, align 8
  %1 = load ptr, ptr %watchdog, align 8
  %signal_flag_ = getelementptr inbounds %"class.node::TraceSigintWatchdog", ptr %1, i32 0, i32 5
  store i32 1, ptr %signal_flag_, align 8
  %2 = load ptr, ptr %watchdog, align 8
  call void @_ZN4node19TraceSigintWatchdog15HandleInterruptEv(ptr noundef nonnull align 8 dereferenceable(236) %2)
  ret void
}

; Function Attrs: mustprogress nounwind uwtable
define internal void @"_ZZN4node19TraceSigintWatchdogC1EPNS_11EnvironmentEN2v85LocalINS3_6ObjectEEEEN3$_08__invokeEP10uv_async_s"(ptr noundef %handle) #4 align 2 {
entry:
  %handle.addr = alloca ptr, align 8
  %unused.capture = alloca %class.anon.271, align 1
  store ptr %handle, ptr %handle.addr, align 8
  %0 = load ptr, ptr %handle.addr, align 8
  call void @"_ZZN4node19TraceSigintWatchdogC1EPNS_11EnvironmentEN2v85LocalINS3_6ObjectEEEENK3$_0clEP10uv_async_s"(ptr noundef nonnull align 1 dereferenceable(1) %unused.capture, ptr noundef %0)
  ret void
}