; Function Attrs: mustprogress nounwind uwtable
define internal void @"_ZZN4node19TraceSigintWatchdogC1EPNS_11EnvironmentEN2v85LocalINS3_6ObjectEEEEN3$_08__invokeEP10uv_async_s"(ptr noundef %handle) #3 align 2 {
entry:
  %0 = ptrtoint ptr %handle to i64
  %sub.i.i.i = add i64 %0, -104
  %1 = inttoptr i64 %sub.i.i.i to ptr
  %signal_flag_.i = getelementptr inbounds i8, ptr %1, i64 232
  store i32 1, ptr %signal_flag_.i, align 8
  tail call void @_ZN4node19TraceSigintWatchdog15HandleInterruptEv(ptr noundef nonnull align 8 dereferenceable(236) %1)
  ret void
}